target datalayout = "e-m:e-p270:32:32-p271:32:32-p272:64:64-i64:64-i128:128-f80:128-n8:16:32:64-S128"
target triple = "x86_64-pc-linux-gnu"

%union.pthread_rwlock_t = type { %struct.__pthread_rwlock_arch_t }
%struct.__pthread_rwlock_arch_t = type { i32, i32, i32, i32, i32, i32, i32, i32, i8, [7 x i8], i64, i32 }

@slurmctld_locks = internal global [5 x %union.pthread_rwlock_t] zeroinitializer, align 16
@.str.2 = private unnamed_addr constant [32 x i8] c"%s: pthread_rwlock_unlock(): %m\00", align 1
@.str.5 = private unnamed_addr constant [2 x i8] c"W\00", align 1
@__func__._report_lock_set = private unnamed_addr constant [17 x i8] c"_report_lock_set\00", align 1
@.str.6 = private unnamed_addr constant [2 x i8] c"R\00", align 1

; Function Attrs: nounwind uwtable
define internal void @_report_lock_set(ptr noundef %0, i32 noundef %1) #0 {
  %3 = alloca ptr, align 8
  %4 = alloca i32, align 4
  %5 = alloca i32, align 4
  %6 = alloca i32, align 4
  store ptr %0, ptr %3, align 8
  store i32 %1, ptr %4, align 4
  %7 = load i32, ptr %4, align 4
  %8 = zext i32 %7 to i64
  %9 = getelementptr inbounds nuw [5 x %union.pthread_rwlock_t], ptr @slurmctld_locks, i64 0, i64 %8
  %10 = call i32 @pthread_rwlock_tryrdlock(ptr noundef %9) #7
  %11 = icmp ne i32 %10, 0
  br i1 %11, label %12, label %14

12:                                               ; preds = %2
  %13 = load ptr, ptr %3, align 8
  store ptr @.str.5, ptr %13, align 8
  br label %48

14:                                               ; preds = %2
  br label %15

15:                                               ; preds = %14
  call void @llvm.lifetime.start.p0(i64 4, ptr %5) #7
  %16 = load i32, ptr %4, align 4
  %17 = zext i32 %16 to i64
  %18 = getelementptr inbounds nuw [5 x %union.pthread_rwlock_t], ptr @slurmctld_locks, i64 0, i64 %17
  %19 = call i32 @pthread_rwlock_unlock(ptr noundef %18) #7
  store i32 %19, ptr %5, align 4
  %20 = load i32, ptr %5, align 4
  %21 = icmp ne i32 %20, 0
  br i1 %21, label %22, label %25

22:                                               ; preds = %15
  %23 = load i32, ptr %5, align 4
  %24 = call ptr @__errno_location() #8
  store i32 %23, ptr %24, align 4
  call void (ptr, ...) @fatal_abort(ptr noundef @.str.2, ptr noundef @__func__._report_lock_set) #9
  unreachable

25:                                               ; preds = %15
  call void @llvm.lifetime.end.p0(i64 4, ptr %5) #7
  br label %26

26:                                               ; preds = %25
  %27 = load i32, ptr %4, align 4
  %28 = zext i32 %27 to i64
  %29 = getelementptr inbounds nuw [5 x %union.pthread_rwlock_t], ptr @slurmctld_locks, i64 0, i64 %28
  %30 = call i32 @pthread_rwlock_trywrlock(ptr noundef %29) #7
  %31 = icmp ne i32 %30, 0
  br i1 %31, label %32, label %34

32:                                               ; preds = %26
  %33 = load ptr, ptr %3, align 8
  store ptr @.str.6, ptr %33, align 8
  br label %47

34:                                               ; preds = %26
  br label %35

35:                                               ; preds = %34
  call void @llvm.lifetime.start.p0(i64 4, ptr %6) #7
  %36 = load i32, ptr %4, align 4
  %37 = zext i32 %36 to i64
  %38 = getelementptr inbounds nuw [5 x %union.pthread_rwlock_t], ptr @slurmctld_locks, i64 0, i64 %37
  %39 = call i32 @pthread_rwlock_unlock(ptr noundef %38) #7
  store i32 %39, ptr %6, align 4
  %40 = load i32, ptr %6, align 4
  %41 = icmp ne i32 %40, 0
  br i1 %41, label %42, label %45

42:                                               ; preds = %35
  %43 = load i32, ptr %6, align 4
  %44 = call ptr @__errno_location() #8
  store i32 %43, ptr %44, align 4
  call void (ptr, ...) @fatal_abort(ptr noundef @.str.2, ptr noundef @__func__._report_lock_set) #9
  unreachable

45:                                               ; preds = %35
  call void @llvm.lifetime.end.p0(i64 4, ptr %6) #7
  br label %46

46:                                               ; preds = %45
  br label %47

47:                                               ; preds = %46, %32
  br label %48

48:                                               ; preds = %47, %12
  ret void
}