; Function Attrs: nounwind uwtable
define internal fastcc void @_report_lock_set(ptr noundef nonnull writeonly captures(none) %0, i32 noundef range(i32 0, 5) %1) unnamed_addr #0 {
  %3 = zext nneg i32 %1 to i64
  %4 = getelementptr inbounds nuw [5 x %union.pthread_rwlock_t], ptr @slurmctld_locks, i64 0, i64 %3
  %5 = tail call i32 @pthread_rwlock_tryrdlock(ptr noundef nonnull %4) #7
  %.not = icmp eq i32 %5, 0
  br i1 %.not, label %6, label %.sink.split

6:                                                ; preds = %2
  %7 = tail call i32 @pthread_rwlock_unlock(ptr noundef nonnull %4) #7
  %.not10 = icmp eq i32 %7, 0
  br i1 %.not10, label %10, label %8

8:                                                ; preds = %6
  %9 = tail call ptr @__errno_location() #8
  store i32 %7, ptr %9, align 4
  tail call void (ptr, ...) @fatal_abort(ptr noundef nonnull @.str.2, ptr noundef nonnull @__func__._report_lock_set) #9
  unreachable

10:                                               ; preds = %6
  %11 = tail call i32 @pthread_rwlock_trywrlock(ptr noundef nonnull %4) #7
  %.not11 = icmp eq i32 %11, 0
  br i1 %.not11, label %12, label %.sink.split

12:                                               ; preds = %10
  %13 = tail call i32 @pthread_rwlock_unlock(ptr noundef nonnull %4) #7
  %.not12 = icmp eq i32 %13, 0
  br i1 %.not12, label %16, label %14

14:                                               ; preds = %12
  %15 = tail call ptr @__errno_location() #8
  store i32 %13, ptr %15, align 4
  tail call void (ptr, ...) @fatal_abort(ptr noundef nonnull @.str.2, ptr noundef nonnull @__func__._report_lock_set) #9
  unreachable

.sink.split:                                      ; preds = %10, %2
  %.str.6.sink = phi ptr [ @.str.5, %2 ], [ @.str.6, %10 ]
  store ptr %.str.6.sink, ptr %0, align 8
  br label %16

16:                                               ; preds = %.sink.split, %12
  ret void
}